---
triple:          'arm64-apple-darwin'
binary-path:     '/Users/filo/Documents/GitHub/MFA2/record'
relocations:
  - { offsetInCU: 0xBE4C, offset: 0xBE4C, size: 0x8, addend: 0x0, symName: __ZNSt3__17advanceB8ue170006IPKfllvEEvRT_T0_, symObjAddr: 0xF30, symBinAddr: 0x100003A04, symSize: 0x38 }
  - { offsetInCU: 0xC15A, offset: 0xC15A, size: 0x8, addend: 0x0, symName: __ZNSt3__124__put_character_sequenceB8ue170006IcNS_11char_traitsIcEEEERNS_13basic_ostreamIT_T0_EES7_PKS4_m, symObjAddr: 0x3F48, symBinAddr: 0x100006A1C, symSize: 0x1EC }
  - { offsetInCU: 0xDDD0, offset: 0xDDD0, size: 0x8, addend: 0x0, symName: __ZNSt3__1lsB8ue170006INS_11char_traitsIcEEEERNS_13basic_ostreamIcT_EES6_PKc, symObjAddr: 0x450, symBinAddr: 0x100002F24, symSize: 0x48 }
  - { offsetInCU: 0xDE16, offset: 0xDE16, size: 0x8, addend: 0x0, symName: __ZNSt3__14endlB8ue170006IcNS_11char_traitsIcEEEERNS_13basic_ostreamIT_T0_EES7_, symObjAddr: 0x4C4, symBinAddr: 0x100002F98, symSize: 0x58 }
  - { offsetInCU: 0xE6E4, offset: 0xE6E4, size: 0x8, addend: 0x0, symName: __ZNSt3__18distanceB8ue170006IPKfEENS_15iterator_traitsIT_E15difference_typeES4_S4_, symObjAddr: 0xE30, symBinAddr: 0x100003904, symSize: 0x2C }
  - { offsetInCU: 0xE727, offset: 0xE727, size: 0x8, addend: 0x0, symName: __ZNSt3__1miB8ue170006IPKfPfEEDTmicldtfp_4baseEcldtfp0_4baseEERKNS_11__wrap_iterIT_EERKNS5_IT0_EE, symObjAddr: 0xE5C, symBinAddr: 0x100003930, symSize: 0x48 }
  - { offsetInCU: 0xE773, offset: 0xE773, size: 0x8, addend: 0x0, symName: __ZNSt3__14nextB8ue170006IPKfEENS_9enable_ifIXsr29__has_input_iterator_categoryIT_EE5valueES4_E4typeES4_NS_15iterator_traitsIS4_E15difference_typeE, symObjAddr: 0xEFC, symBinAddr: 0x1000039D0, symSize: 0x34 }
  - { offsetInCU: 0xE7B6, offset: 0xE7B6, size: 0x8, addend: 0x0, symName: __ZNSt3__14copyB8ue170006IPKfPfEET0_T_S5_S4_, symObjAddr: 0x1120, symBinAddr: 0x100003BF4, symSize: 0x40 }
  - { offsetInCU: 0xE810, offset: 0xE810, size: 0x8, addend: 0x0, symName: __ZNSt3__121__convert_to_integralB8ue170006El, symObjAddr: 0x1558, symBinAddr: 0x10000402C, symSize: 0x14 }
  - { offsetInCU: 0xE83C, offset: 0xE83C, size: 0x8, addend: 0x0, symName: __ZNSt3__19__advanceB8ue170006IPKfEEvRT_NS_15iterator_traitsIS3_E15difference_typeENS_26random_access_iterator_tagE, symObjAddr: 0x156C, symBinAddr: 0x100004040, symSize: 0x28 }
  - { offsetInCU: 0xE885, offset: 0xE885, size: 0x8, addend: 0x0, symName: __ZNSt3__130__uninitialized_allocator_copyB8ue170006INS_9allocatorIfEEPKfS4_PfEET2_RT_T0_T1_S6_, symObjAddr: 0x15D0, symBinAddr: 0x1000040A4, symSize: 0x80 }
  - { offsetInCU: 0xE922, offset: 0xE922, size: 0x8, addend: 0x0, symName: __ZNSt3__114__unwrap_rangeB8ue170006IPKfS2_EENS_4pairIT0_S4_EET_S6_, symObjAddr: 0x16C0, symBinAddr: 0x100004194, symSize: 0x60 }
  - { offsetInCU: 0xE96E, offset: 0xE96E, size: 0x8, addend: 0x0, symName: __ZNSt3__135__uninitialized_allocator_copy_implB8ue170006INS_9allocatorIfEEKfffLPv0EEEPT2_RT_PT0_SA_S6_, symObjAddr: 0x1720, symBinAddr: 0x1000041F4, symSize: 0x38 }
  - { offsetInCU: 0xE9EF, offset: 0xE9EF, size: 0x8, addend: 0x0, symName: __ZNSt3__113__unwrap_iterB8ue170006IPfNS_18__unwrap_iter_implIS1_Lb1EEELi0EEEDTclsrT0_8__unwrapclsr3stdE7declvalIT_EEEES5_, symObjAddr: 0x1758, symBinAddr: 0x10000422C, symSize: 0x24 }
  - { offsetInCU: 0xEA33, offset: 0xEA33, size: 0x8, addend: 0x0, symName: __ZNSt3__113__rewrap_iterB8ue170006IPfS1_NS_18__unwrap_iter_implIS1_Lb1EEEEET_S4_T0_, symObjAddr: 0x177C, symBinAddr: 0x100004250, symSize: 0x3C }
  - { offsetInCU: 0xEA88, offset: 0xEA88, size: 0x8, addend: 0x0, symName: __ZNSt3__19make_pairB8ue170006IPKfS2_EENS_4pairINS_18__unwrap_ref_decayIT_E4typeENS4_IT0_E4typeEEEOS5_OS8_, symObjAddr: 0x17B8, symBinAddr: 0x10000428C, symSize: 0x38 }
  - { offsetInCU: 0xEAD7, offset: 0xEAD7, size: 0x8, addend: 0x0, symName: __ZNSt3__113__unwrap_iterB8ue170006IPKfNS_18__unwrap_iter_implIS2_Lb1EEELi0EEEDTclsrT0_8__unwrapclsr3stdE7declvalIT_EEEES6_, symObjAddr: 0x17F0, symBinAddr: 0x1000042C4, symSize: 0x24 }
  - { offsetInCU: 0xEC42, offset: 0xEC42, size: 0x8, addend: 0x0, symName: __ZNSt3__112__to_addressB8ue170006IKfEEPT_S3_, symObjAddr: 0x18A8, symBinAddr: 0x10000437C, symSize: 0x14 }
  - { offsetInCU: 0xECCA, offset: 0xECCA, size: 0x8, addend: 0x0, symName: __ZNSt3__112__to_addressB8ue170006IfEEPT_S2_, symObjAddr: 0x18E0, symBinAddr: 0x1000043B4, symSize: 0x14 }
  - { offsetInCU: 0xECFF, offset: 0xECFF, size: 0x8, addend: 0x0, symName: __ZNSt3__113move_backwardB8ue170006IPfS1_EET0_T_S3_S2_, symObjAddr: 0x1998, symBinAddr: 0x10000446C, symSize: 0x40 }
  - { offsetInCU: 0xED59, offset: 0xED59, size: 0x8, addend: 0x0, symName: __ZNSt3__115__move_backwardB8ue170006INS_17_ClassicAlgPolicyEPfS2_S2_EENS_4pairIT0_T2_EES4_T1_S5_, symObjAddr: 0x1A00, symBinAddr: 0x1000044D4, symSize: 0x44 }
  - { offsetInCU: 0xEDC5, offset: 0xEDC5, size: 0x8, addend: 0x0, symName: __ZNSt3__123__dispatch_copy_or_moveB8ue170006INS_17_ClassicAlgPolicyENS_20__move_backward_loopIS1_EENS_23__move_backward_trivialEPfS5_S5_EENS_4pairIT2_T4_EES7_T3_S8_, symObjAddr: 0x1A44, symBinAddr: 0x100004518, symSize: 0x44 }
  - { offsetInCU: 0xEE43, offset: 0xEE43, size: 0x8, addend: 0x0, symName: __ZNSt3__121__unwrap_and_dispatchB8ue170006INS_10__overloadINS_20__move_backward_loopINS_17_ClassicAlgPolicyEEENS_23__move_backward_trivialEEEPfS7_S7_Li0EEENS_4pairIT0_T2_EES9_T1_SA_, symObjAddr: 0x1A88, symBinAddr: 0x10000455C, symSize: 0xB4 }
  - { offsetInCU: 0xEED1, offset: 0xEED1, size: 0x8, addend: 0x0, symName: __ZNSt3__114__unwrap_rangeB8ue170006IPfS1_EENS_4pairIT0_S3_EET_S5_, symObjAddr: 0x1B3C, symBinAddr: 0x100004610, symSize: 0x60 }
  - { offsetInCU: 0xF095, offset: 0xF095, size: 0x8, addend: 0x0, symName: __ZNSt3__19make_pairB8ue170006IPfS1_EENS_4pairINS_18__unwrap_ref_decayIT_E4typeENS3_IT0_E4typeEEEOS4_OS7_, symObjAddr: 0x1BE4, symBinAddr: 0x1000046B8, symSize: 0x38 }
  - { offsetInCU: 0xF0E4, offset: 0xF0E4, size: 0x8, addend: 0x0, symName: __ZNSt3__114__rewrap_rangeB8ue170006IPfS1_EET_S2_T0_, symObjAddr: 0x1C1C, symBinAddr: 0x1000046F0, symSize: 0x2C }
  - { offsetInCU: 0xF130, offset: 0xF130, size: 0x8, addend: 0x0, symName: __ZNSt3__128__copy_backward_trivial_implB8ue170006IffEENS_4pairIPT_PT0_EES3_S3_S5_, symObjAddr: 0x1C48, symBinAddr: 0x10000471C, symSize: 0x90 }
  - { offsetInCU: 0xF198, offset: 0xF198, size: 0x8, addend: 0x0, symName: __ZNSt3__119__constexpr_memmoveB8ue170006IffLi0EEEPT_S2_PT0_NS_15__element_countE, symObjAddr: 0x1CD8, symBinAddr: 0x1000047AC, symSize: 0x64 }
  - { offsetInCU: 0xF206, offset: 0xF206, size: 0x8, addend: 0x0, symName: __ZNSt3__19make_pairB8ue170006IRPfS2_EENS_4pairINS_18__unwrap_ref_decayIT_E4typeENS4_IT0_E4typeEEEOS5_OS8_, symObjAddr: 0x1D3C, symBinAddr: 0x100004810, symSize: 0x38 }
  - { offsetInCU: 0xF255, offset: 0xF255, size: 0x8, addend: 0x0, symName: __ZNSt3__16__copyB8ue170006INS_17_ClassicAlgPolicyEPKfS3_PfEENS_4pairIT0_T2_EES6_T1_S7_, symObjAddr: 0x1E54, symBinAddr: 0x100004928, symSize: 0x44 }
  - { offsetInCU: 0xF2C1, offset: 0xF2C1, size: 0x8, addend: 0x0, symName: __ZNSt3__123__dispatch_copy_or_moveB8ue170006INS_17_ClassicAlgPolicyENS_11__copy_loopIS1_EENS_14__copy_trivialEPKfS6_PfEENS_4pairIT2_T4_EES9_T3_SA_, symObjAddr: 0x1E98, symBinAddr: 0x10000496C, symSize: 0x44 }
  - { offsetInCU: 0xF33F, offset: 0xF33F, size: 0x8, addend: 0x0, symName: __ZNSt3__121__unwrap_and_dispatchB8ue170006INS_10__overloadINS_11__copy_loopINS_17_ClassicAlgPolicyEEENS_14__copy_trivialEEEPKfS8_PfLi0EEENS_4pairIT0_T2_EESB_T1_SC_, symObjAddr: 0x1EDC, symBinAddr: 0x1000049B0, symSize: 0xB4 }
  - { offsetInCU: 0xF516, offset: 0xF516, size: 0x8, addend: 0x0, symName: __ZNSt3__19make_pairB8ue170006IPKfPfEENS_4pairINS_18__unwrap_ref_decayIT_E4typeENS5_IT0_E4typeEEEOS6_OS9_, symObjAddr: 0x1FD8, symBinAddr: 0x100004AAC, symSize: 0x38 }
  - { offsetInCU: 0xF565, offset: 0xF565, size: 0x8, addend: 0x0, symName: __ZNSt3__114__rewrap_rangeB8ue170006IPKfS2_EET_S3_T0_, symObjAddr: 0x2010, symBinAddr: 0x100004AE4, symSize: 0x2C }
  - { offsetInCU: 0xF5B1, offset: 0xF5B1, size: 0x8, addend: 0x0, symName: __ZNSt3__119__copy_trivial_implB8ue170006IKffEENS_4pairIPT_PT0_EES4_S4_S6_, symObjAddr: 0x203C, symBinAddr: 0x100004B10, symSize: 0x80 }
  - { offsetInCU: 0xF619, offset: 0xF619, size: 0x8, addend: 0x0, symName: __ZNSt3__119__constexpr_memmoveB8ue170006IfKfLi0EEEPT_S3_PT0_NS_15__element_countE, symObjAddr: 0x20BC, symBinAddr: 0x100004B90, symSize: 0x64 }
  - { offsetInCU: 0xF687, offset: 0xF687, size: 0x8, addend: 0x0, symName: __ZNSt3__19make_pairB8ue170006IRPKfPfEENS_4pairINS_18__unwrap_ref_decayIT_E4typeENS6_IT0_E4typeEEEOS7_OSA_, symObjAddr: 0x2120, symBinAddr: 0x100004BF4, symSize: 0x38 }
  - { offsetInCU: 0xF6D6, offset: 0xF6D6, size: 0x8, addend: 0x0, symName: __ZNSt3__113__rewrap_iterB8ue170006IPKfS2_NS_18__unwrap_iter_implIS2_Lb1EEEEET_S5_T0_, symObjAddr: 0x2238, symBinAddr: 0x100004D0C, symSize: 0x3C }
  - { offsetInCU: 0xF72B, offset: 0xF72B, size: 0x8, addend: 0x0, symName: __ZNSt3__13maxB8ue170006ImEERKT_S3_S3_, symObjAddr: 0x23B8, symBinAddr: 0x100004E8C, symSize: 0x2C }
  - { offsetInCU: 0xF76E, offset: 0xF76E, size: 0x8, addend: 0x0, symName: __ZNSt3__13minB8ue170006ImEERKT_S3_S3_, symObjAddr: 0x23E4, symBinAddr: 0x100004EB8, symSize: 0x2C }
  - { offsetInCU: 0xF99B, offset: 0xF99B, size: 0x8, addend: 0x0, symName: __ZNSt3__13minB8ue170006ImNS_6__lessIvvEEEERKT_S5_S5_T0_, symObjAddr: 0x2470, symBinAddr: 0x100004F44, symSize: 0x54 }
  - { offsetInCU: 0xFA3A, offset: 0xFA3A, size: 0x8, addend: 0x0, symName: __ZNSt3__120__throw_length_errorB8ue170006EPKc, symObjAddr: 0x254C, symBinAddr: 0x100005020, symSize: 0x64 }
  - { offsetInCU: 0xFA64, offset: 0xFA64, size: 0x8, addend: 0x0, symName: __ZNSt3__13maxB8ue170006ImNS_6__lessIvvEEEERKT_S5_S5_T0_, symObjAddr: 0x2690, symBinAddr: 0x100005164, symSize: 0x54 }
  - { offsetInCU: 0xFABE, offset: 0xFABE, size: 0x8, addend: 0x0, symName: __ZNSt3__119__allocate_at_leastB8ue170006INS_9allocatorIfEEEENS_19__allocation_resultINS_16allocator_traitsIT_E7pointerEEERS5_m, symObjAddr: 0x27F4, symBinAddr: 0x1000052C8, symSize: 0x40 }
  - { offsetInCU: 0xFB01, offset: 0xFB01, size: 0x8, addend: 0x0, symName: __ZNSt3__117__libcpp_allocateB8ue170006Emm, symObjAddr: 0x2978, symBinAddr: 0x10000544C, symSize: 0x60 }
  - { offsetInCU: 0xFB5B, offset: 0xFB5B, size: 0x8, addend: 0x0, symName: __ZNSt3__124__is_overaligned_for_newB8ue170006Em, symObjAddr: 0x29D8, symBinAddr: 0x1000054AC, symSize: 0x20 }
  - { offsetInCU: 0xFB89, offset: 0xFB89, size: 0x8, addend: 0x0, symName: __ZNSt3__121__libcpp_operator_newB8ue170006IJmSt11align_val_tEEEPvDpT_, symObjAddr: 0x29F8, symBinAddr: 0x1000054CC, symSize: 0x2C }
  - { offsetInCU: 0xFBD6, offset: 0xFBD6, size: 0x8, addend: 0x0, symName: __ZNSt3__121__libcpp_operator_newB8ue170006IJmEEEPvDpT_, symObjAddr: 0x2A24, symBinAddr: 0x1000054F8, symSize: 0x24 }
  - { offsetInCU: 0xFC0F, offset: 0xFC0F, size: 0x8, addend: 0x0, symName: __ZNSt3__142__uninitialized_allocator_move_if_noexceptB8ue170006INS_9allocatorIfEENS_16reverse_iteratorIPfEES5_fvEET1_RT_T0_S9_S6_, symObjAddr: 0x2C8C, symBinAddr: 0x100005760, symSize: 0x78 }
  - { offsetInCU: 0xFC8C, offset: 0xFC8C, size: 0x8, addend: 0x0, symName: __ZNSt3__142__uninitialized_allocator_move_if_noexceptB8ue170006INS_9allocatorIfEEPfS3_fvEET1_RT_T0_S7_S4_, symObjAddr: 0x2D50, symBinAddr: 0x100005824, symSize: 0x38 }
  - { offsetInCU: 0xFD08, offset: 0xFD08, size: 0x8, addend: 0x0, symName: __ZNSt3__14swapB8ue170006IPfEENS_9enable_ifIXaasr21is_move_constructibleIT_EE5valuesr18is_move_assignableIS3_EE5valueEvE4typeERS3_S6_, symObjAddr: 0x2D88, symBinAddr: 0x10000585C, symSize: 0x3C }
  - { offsetInCU: 0xFD59, offset: 0xFD59, size: 0x8, addend: 0x0, symName: __ZNSt3__14moveB8ue170006INS_16reverse_iteratorIPfEES3_EET0_T_S5_S4_, symObjAddr: 0x2EB8, symBinAddr: 0x10000598C, symSize: 0x78 }
  - { offsetInCU: 0xFDB3, offset: 0xFDB3, size: 0x8, addend: 0x0, symName: __ZNSt3__16__moveB8ue170006INS_17_ClassicAlgPolicyENS_16reverse_iteratorIPfEES4_S4_EENS_4pairIT0_T2_EES6_T1_S7_, symObjAddr: 0x2F30, symBinAddr: 0x100005A04, symSize: 0x64 }
  - { offsetInCU: 0xFE1F, offset: 0xFE1F, size: 0x8, addend: 0x0, symName: __ZNSt3__123__dispatch_copy_or_moveB8ue170006INS_17_ClassicAlgPolicyENS_11__move_loopIS1_EENS_14__move_trivialENS_16reverse_iteratorIPfEES7_S7_EENS_4pairIT2_T4_EES9_T3_SA_, symObjAddr: 0x2F94, symBinAddr: 0x100005A68, symSize: 0x64 }
  - { offsetInCU: 0xFE9D, offset: 0xFE9D, size: 0x8, addend: 0x0, symName: __ZNSt3__121__unwrap_and_dispatchB8ue170006INS_10__overloadINS_11__move_loopINS_17_ClassicAlgPolicyEEENS_14__move_trivialEEENS_16reverse_iteratorIPfEES9_S9_Li0EEENS_4pairIT0_T2_EESB_T1_SC_, symObjAddr: 0x2FF8, symBinAddr: 0x100005ACC, symSize: 0x12C }
  - { offsetInCU: 0xFF2D, offset: 0xFF2D, size: 0x8, addend: 0x0, symName: __ZNSt3__114__unwrap_rangeB8ue170006INS_16reverse_iteratorIPfEES3_EENS_4pairIT0_S5_EET_S7_, symObjAddr: 0x3124, symBinAddr: 0x100005BF8, symSize: 0x84 }
  - { offsetInCU: 0x100A8, offset: 0x100A8, size: 0x8, addend: 0x0, symName: __ZNSt3__113__unwrap_iterB8ue170006INS_16reverse_iteratorIPfEENS_18__unwrap_iter_implIS3_Lb0EEELi0EEEDTclsrT0_8__unwrapclsr3stdE7declvalIT_EEEES7_, symObjAddr: 0x3248, symBinAddr: 0x100005D1C, symSize: 0x44 }
  - { offsetInCU: 0x100EC, offset: 0x100EC, size: 0x8, addend: 0x0, symName: __ZNSt3__19make_pairB8ue170006INS_16reverse_iteratorIPfEES3_EENS_4pairINS_18__unwrap_ref_decayIT_E4typeENS5_IT0_E4typeEEEOS6_OS9_, symObjAddr: 0x328C, symBinAddr: 0x100005D60, symSize: 0x38 }
  - { offsetInCU: 0x1013B, offset: 0x1013B, size: 0x8, addend: 0x0, symName: __ZNSt3__114__rewrap_rangeB8ue170006INS_16reverse_iteratorIPfEES3_EET_S4_T0_, symObjAddr: 0x32C4, symBinAddr: 0x100005D98, symSize: 0x5C }
  - { offsetInCU: 0x10187, offset: 0x10187, size: 0x8, addend: 0x0, symName: __ZNSt3__113__rewrap_iterB8ue170006INS_16reverse_iteratorIPfEES3_NS_18__unwrap_iter_implIS3_Lb0EEEEET_S6_T0_, symObjAddr: 0x3320, symBinAddr: 0x100005DF4, symSize: 0x74 }
  - { offsetInCU: 0x101DC, offset: 0x101DC, size: 0x8, addend: 0x0, symName: __ZNSt3__1neB8ue170006IPfS1_EEbRKNS_16reverse_iteratorIT_EERKNS2_IT0_EE, symObjAddr: 0x3394, symBinAddr: 0x100005E68, symSize: 0x48 }
  - { offsetInCU: 0x102DA, offset: 0x102DA, size: 0x8, addend: 0x0, symName: __ZNSt3__14moveB8ue170006IPfS1_EET0_T_S3_S2_, symObjAddr: 0x3538, symBinAddr: 0x10000600C, symSize: 0x40 }
  - { offsetInCU: 0x10334, offset: 0x10334, size: 0x8, addend: 0x0, symName: __ZNSt3__16__moveB8ue170006INS_17_ClassicAlgPolicyEPfS2_S2_EENS_4pairIT0_T2_EES4_T1_S5_, symObjAddr: 0x3578, symBinAddr: 0x10000604C, symSize: 0x44 }
  - { offsetInCU: 0x103A0, offset: 0x103A0, size: 0x8, addend: 0x0, symName: __ZNSt3__123__dispatch_copy_or_moveB8ue170006INS_17_ClassicAlgPolicyENS_11__move_loopIS1_EENS_14__move_trivialEPfS5_S5_EENS_4pairIT2_T4_EES7_T3_S8_, symObjAddr: 0x35BC, symBinAddr: 0x100006090, symSize: 0x44 }
  - { offsetInCU: 0x1041E, offset: 0x1041E, size: 0x8, addend: 0x0, symName: __ZNSt3__121__unwrap_and_dispatchB8ue170006INS_10__overloadINS_11__move_loopINS_17_ClassicAlgPolicyEEENS_14__move_trivialEEEPfS7_S7_Li0EEENS_4pairIT0_T2_EES9_T1_SA_, symObjAddr: 0x3600, symBinAddr: 0x1000060D4, symSize: 0xB4 }
  - { offsetInCU: 0x104F2, offset: 0x104F2, size: 0x8, addend: 0x0, symName: __ZNSt3__119__copy_trivial_implB8ue170006IffEENS_4pairIPT_PT0_EES3_S3_S5_, symObjAddr: 0x36FC, symBinAddr: 0x1000061D0, symSize: 0x80 }
  - { offsetInCU: 0x1055A, offset: 0x1055A, size: 0x8, addend: 0x0, symName: __ZNSt3__19make_pairB8ue170006IRPfS1_EENS_4pairINS_18__unwrap_ref_decayIT_E4typeENS4_IT0_E4typeEEEOS5_OS8_, symObjAddr: 0x377C, symBinAddr: 0x100006250, symSize: 0x38 }
  - { offsetInCU: 0x105A9, offset: 0x105A9, size: 0x8, addend: 0x0, symName: __ZNSt3__119__libcpp_deallocateB8ue170006EPvmm, symObjAddr: 0x3A78, symBinAddr: 0x10000654C, symSize: 0x60 }
  - { offsetInCU: 0x1060E, offset: 0x1060E, size: 0x8, addend: 0x0, symName: __ZNSt3__127__do_deallocate_handle_sizeB8ue170006IJSt11align_val_tEEEvPvmDpT_, symObjAddr: 0x3AD8, symBinAddr: 0x1000065AC, symSize: 0x30 }
  - { offsetInCU: 0x10661, offset: 0x10661, size: 0x8, addend: 0x0, symName: __ZNSt3__127__do_deallocate_handle_sizeB8ue170006IJEEEvPvmDpT_, symObjAddr: 0x3B08, symBinAddr: 0x1000065DC, symSize: 0x28 }
  - { offsetInCU: 0x1069F, offset: 0x1069F, size: 0x8, addend: 0x0, symName: __ZNSt3__124__libcpp_operator_deleteB8ue170006IJPvSt11align_val_tEEEvDpT_, symObjAddr: 0x3B30, symBinAddr: 0x100006604, symSize: 0x2C }
  - { offsetInCU: 0x106E8, offset: 0x106E8, size: 0x8, addend: 0x0, symName: __ZNSt3__124__libcpp_operator_deleteB8ue170006IJPvEEEvDpT_, symObjAddr: 0x3B5C, symBinAddr: 0x100006630, symSize: 0x24 }
  - { offsetInCU: 0x1071D, offset: 0x1071D, size: 0x8, addend: 0x0, symName: __ZNSt3__110__distanceB8ue170006IPKfEENS_15iterator_traitsIT_E15difference_typeES4_S4_NS_26random_access_iterator_tagE, symObjAddr: 0x3C20, symBinAddr: 0x1000066F4, symSize: 0x28 }
  - { offsetInCU: 0x1076A, offset: 0x1076A, size: 0x8, addend: 0x0, symName: __ZNSt3__116__pad_and_outputB8ue170006IcNS_11char_traitsIcEEEENS_19ostreambuf_iteratorIT_T0_EES6_PKS4_S8_S8_RNS_8ios_baseES4_, symObjAddr: 0x4184, symBinAddr: 0x100006C58, symSize: 0x240 }
  - { offsetInCU: 0x10839, offset: 0x10839, size: 0x8, addend: 0x0, symName: __ZNSt3__112__to_addressB8ue170006IcEEPT_S2_, symObjAddr: 0x46EC, symBinAddr: 0x1000071C0, symSize: 0x14 }
  - { offsetInCU: 0x108A1, offset: 0x108A1, size: 0x8, addend: 0x0, symName: __ZNSt3__19use_facetB8ue170006INS_5ctypeIcEEEERKT_RKNS_6localeE, symObjAddr: 0x49A4, symBinAddr: 0x100007478, symSize: 0x2C }
  - { offsetInCU: 0x10D6E, offset: 0x10D6E, size: 0x8, addend: 0x0, symName: __ZNSt3__118__constexpr_strlenB8ue170006EPKc, symObjAddr: 0x4A3C, symBinAddr: 0x100007510, symSize: 0x24 }
  - { offsetInCU: 0x10D9A, offset: 0x10D9A, size: 0x8, addend: 0x0, symName: __ZNSt3__1eqB8ue170006I11__mbstate_tEEbRKNS_4fposIT_EES6_, symObjAddr: 0x4B94, symBinAddr: 0x100007668, symSize: 0x48 }
  - { offsetInCU: 0x112B4, offset: 0x112B4, size: 0x8, addend: 0x0, symName: __ZSt28__throw_bad_array_new_lengthB8ue170006v, symObjAddr: 0x2944, symBinAddr: 0x100005418, symSize: 0x34 }
  - { offsetInCU: 0x11C58, offset: 0x11C58, size: 0x8, addend: 0x0, symName: __ZNSt3__16vectorIfNS_9allocatorIfEEE26__swap_out_circular_bufferERNS_14__split_bufferIfRS2_EEPf, symObjAddr: 0x1348, symBinAddr: 0x100003E1C, symSize: 0x14C }
  - { offsetInCU: 0x140E1, offset: 0x140E1, size: 0x8, addend: 0x0, symName: _main, symObjAddr: 0x0, symBinAddr: 0x100002AD4, symSize: 0x384 }
  - { offsetInCU: 0x14197, offset: 0x14197, size: 0x8, addend: 0x0, symName: __ZN9AudioDataC1Ev, symObjAddr: 0x384, symBinAddr: 0x100002E58, symSize: 0x2C }
  - { offsetInCU: 0x141C3, offset: 0x141C3, size: 0x8, addend: 0x0, symName: __ZL14recordCallbackPKvPvmPK24PaStreamCallbackTimeInfomS1_, symObjAddr: 0x3B0, symBinAddr: 0x100002E84, symSize: 0xA0 }
  - { offsetInCU: 0x14252, offset: 0x14252, size: 0x8, addend: 0x0, symName: __ZNSt3__113basic_ostreamIcNS_11char_traitsIcEEElsB8ue170006EPFRS3_S4_E, symObjAddr: 0x498, symBinAddr: 0x100002F6C, symSize: 0x2C }
  - { offsetInCU: 0x14321, offset: 0x14321, size: 0x8, addend: 0x0, symName: __ZNSt3__114basic_ofstreamIcNS_11char_traitsIcEEEC1EPKcj, symObjAddr: 0x51C, symBinAddr: 0x100002FF0, symSize: 0x16C }
  - { offsetInCU: 0x1436B, offset: 0x1436B, size: 0x8, addend: 0x0, symName: __ZNKSt3__16vectorIfNS_9allocatorIfEEE4sizeB8ue170006Ev, symObjAddr: 0x688, symBinAddr: 0x10000315C, symSize: 0x28 }
  - { offsetInCU: 0x14391, offset: 0x14391, size: 0x8, addend: 0x0, symName: __ZNSt3__16vectorIfNS_9allocatorIfEEE4dataB8ue170006Ev, symObjAddr: 0x6B0, symBinAddr: 0x100003184, symSize: 0x28 }
  - { offsetInCU: 0x143B7, offset: 0x143B7, size: 0x8, addend: 0x0, symName: __ZNSt3__113basic_ostreamIcNS_11char_traitsIcEEE5seekpExNS_8ios_base7seekdirE, symObjAddr: 0x6D8, symBinAddr: 0x1000031AC, symSize: 0x150 }
  - { offsetInCU: 0x1440F, offset: 0x1440F, size: 0x8, addend: 0x0, symName: __ZNSt3__114basic_ofstreamIcNS_11char_traitsIcEEE5closeEv, symObjAddr: 0x828, symBinAddr: 0x1000032FC, symSize: 0x58 }
  - { offsetInCU: 0x1443C, offset: 0x1443C, size: 0x8, addend: 0x0, symName: __ZNSt3__114basic_ofstreamIcNS_11char_traitsIcEEED1Ev, symObjAddr: 0x880, symBinAddr: 0x100003354, symSize: 0x40 }
  - { offsetInCU: 0x14469, offset: 0x14469, size: 0x8, addend: 0x0, symName: __ZN9AudioDataD1Ev, symObjAddr: 0x8C0, symBinAddr: 0x100003394, symSize: 0x2C }
  - { offsetInCU: 0x14495, offset: 0x14495, size: 0x8, addend: 0x0, symName: __ZN9AudioDataC2Ev, symObjAddr: 0x8EC, symBinAddr: 0x1000033C0, symSize: 0x2C }
  - { offsetInCU: 0x144C1, offset: 0x144C1, size: 0x8, addend: 0x0, symName: __ZNSt3__16vectorIfNS_9allocatorIfEEEC1B8ue170006Ev, symObjAddr: 0x918, symBinAddr: 0x1000033EC, symSize: 0x2C }
  - { offsetInCU: 0x144EB, offset: 0x144EB, size: 0x8, addend: 0x0, symName: __ZNSt3__16vectorIfNS_9allocatorIfEEEC2B8ue170006Ev, symObjAddr: 0x944, symBinAddr: 0x100003418, symSize: 0x4C }
  - { offsetInCU: 0x14521, offset: 0x14521, size: 0x8, addend: 0x0, symName: __ZNSt3__117__compressed_pairIPfNS_9allocatorIfEEEC1B8ue170006IDnNS_18__default_init_tagEEEOT_OT0_, symObjAddr: 0x990, symBinAddr: 0x100003464, symSize: 0x3C }
  - { offsetInCU: 0x14579, offset: 0x14579, size: 0x8, addend: 0x0, symName: __ZNSt3__117__compressed_pairIPfNS_9allocatorIfEEEC2B8ue170006IDnNS_18__default_init_tagEEEOT_OT0_, symObjAddr: 0x9D8, symBinAddr: 0x1000034AC, symSize: 0x40 }
  - { offsetInCU: 0x145D1, offset: 0x145D1, size: 0x8, addend: 0x0, symName: __ZNSt3__122__compressed_pair_elemIPfLi0ELb0EEC2B8ue170006IDnvEEOT_, symObjAddr: 0xA18, symBinAddr: 0x1000034EC, symSize: 0x1C }
  - { offsetInCU: 0x14613, offset: 0x14613, size: 0x8, addend: 0x0, symName: __ZNSt3__122__compressed_pair_elemINS_9allocatorIfEELi1ELb1EEC2B8ue170006ENS_18__default_init_tagE, symObjAddr: 0xA34, symBinAddr: 0x100003508, symSize: 0x2C }
  - { offsetInCU: 0x14647, offset: 0x14647, size: 0x8, addend: 0x0, symName: __ZNSt3__19allocatorIfEC2B8ue170006Ev, symObjAddr: 0xA60, symBinAddr: 0x100003534, symSize: 0x2C }
  - { offsetInCU: 0x14671, offset: 0x14671, size: 0x8, addend: 0x0, symName: __ZNSt3__116__non_trivial_ifILb1ENS_9allocatorIfEEEC2B8ue170006Ev, symObjAddr: 0xA8C, symBinAddr: 0x100003560, symSize: 0x14 }
  - { offsetInCU: 0x1469B, offset: 0x1469B, size: 0x8, addend: 0x0, symName: __ZNSt3__16vectorIfNS_9allocatorIfEEE6insertIPKfLi0EEENS_11__wrap_iterIPfEENS7_IS6_EET_SB_, symObjAddr: 0xAA0, symBinAddr: 0x100003574, symSize: 0x74 }
  - { offsetInCU: 0x146FF, offset: 0x146FF, size: 0x8, addend: 0x0, symName: __ZNSt3__16vectorIfNS_9allocatorIfEEE3endB8ue170006Ev, symObjAddr: 0xB14, symBinAddr: 0x1000035E8, symSize: 0x30 }
  - { offsetInCU: 0x14731, offset: 0x14731, size: 0x8, addend: 0x0, symName: __ZNSt3__111__wrap_iterIPKfEC1B8ue170006IPfEERKNS0_IT_EEPNS_9enable_ifIXsr14is_convertibleIS6_S2_EE5valueEvE4typeE, symObjAddr: 0xB44, symBinAddr: 0x100003618, symSize: 0x3C }
  - { offsetInCU: 0x1477C, offset: 0x1477C, size: 0x8, addend: 0x0, symName: __ZNSt3__16vectorIfNS_9allocatorIfEEE18__insert_with_sizeB8ue170006IPKfS6_EENS_11__wrap_iterIPfEENS7_IS6_EET_T0_l, symObjAddr: 0xB80, symBinAddr: 0x100003654, symSize: 0x2B0 }
  - { offsetInCU: 0x148A4, offset: 0x148A4, size: 0x8, addend: 0x0, symName: __ZNSt3__16vectorIfNS_9allocatorIfEEE5beginB8ue170006Ev, symObjAddr: 0xEA4, symBinAddr: 0x100003978, symSize: 0x30 }
  - { offsetInCU: 0x148CC, offset: 0x148CC, size: 0x8, addend: 0x0, symName: __ZNSt3__16vectorIfNS_9allocatorIfEEE9__end_capB8ue170006Ev, symObjAddr: 0xED4, symBinAddr: 0x1000039A8, symSize: 0x28 }
  - { offsetInCU: 0x148F2, offset: 0x148F2, size: 0x8, addend: 0x0, symName: __ZNSt3__16vectorIfNS_9allocatorIfEEE18__construct_at_endIPKfS6_EEvT_T0_m, symObjAddr: 0xF68, symBinAddr: 0x100003A3C, symSize: 0x8C }
  - { offsetInCU: 0x14968, offset: 0x14968, size: 0x8, addend: 0x0, symName: __ZNSt3__16vectorIfNS_9allocatorIfEEE12__move_rangeEPfS4_S4_, symObjAddr: 0xFF4, symBinAddr: 0x100003AC8, symSize: 0x12C }
  - { offsetInCU: 0x14A24, offset: 0x14A24, size: 0x8, addend: 0x0, symName: __ZNSt3__16vectorIfNS_9allocatorIfEEE7__allocB8ue170006Ev, symObjAddr: 0x1160, symBinAddr: 0x100003C34, symSize: 0x28 }
  - { offsetInCU: 0x14A4A, offset: 0x14A4A, size: 0x8, addend: 0x0, symName: __ZNKSt3__16vectorIfNS_9allocatorIfEEE11__recommendB8ue170006Em, symObjAddr: 0x1188, symBinAddr: 0x100003C5C, symSize: 0xB4 }
  - { offsetInCU: 0x14A9F, offset: 0x14A9F, size: 0x8, addend: 0x0, symName: __ZNSt3__114__split_bufferIfRNS_9allocatorIfEEEC1EmmS3_, symObjAddr: 0x123C, symBinAddr: 0x100003D10, symSize: 0x44 }
  - { offsetInCU: 0x14AF5, offset: 0x14AF5, size: 0x8, addend: 0x0, symName: __ZNSt3__114__split_bufferIfRNS_9allocatorIfEEE28__construct_at_end_with_sizeIPKfEEvT_m, symObjAddr: 0x1280, symBinAddr: 0x100003D54, symSize: 0xC8 }
  - { offsetInCU: 0x14B51, offset: 0x14B51, size: 0x8, addend: 0x0, symName: __ZNSt3__114__split_bufferIfRNS_9allocatorIfEEED1Ev, symObjAddr: 0x1494, symBinAddr: 0x100003F68, symSize: 0x2C }
  - { offsetInCU: 0x14B7D, offset: 0x14B7D, size: 0x8, addend: 0x0, symName: __ZNSt3__16vectorIfNS_9allocatorIfEEE11__make_iterB8ue170006EPf, symObjAddr: 0x14C0, symBinAddr: 0x100003F94, symSize: 0x30 }
  - { offsetInCU: 0x14BB2, offset: 0x14BB2, size: 0x8, addend: 0x0, symName: __ZNKSt3__111__wrap_iterIPKfE4baseB8ue170006Ev, symObjAddr: 0x14F0, symBinAddr: 0x100003FC4, symSize: 0x18 }
  - { offsetInCU: 0x14BD8, offset: 0x14BD8, size: 0x8, addend: 0x0, symName: __ZNKSt3__111__wrap_iterIPfE4baseB8ue170006Ev, symObjAddr: 0x1508, symBinAddr: 0x100003FDC, symSize: 0x18 }
  - { offsetInCU: 0x14BFE, offset: 0x14BFE, size: 0x8, addend: 0x0, symName: __ZNSt3__117__compressed_pairIPfNS_9allocatorIfEEE5firstB8ue170006Ev, symObjAddr: 0x1520, symBinAddr: 0x100003FF4, symSize: 0x24 }
  - { offsetInCU: 0x14C24, offset: 0x14C24, size: 0x8, addend: 0x0, symName: __ZNSt3__122__compressed_pair_elemIPfLi0ELb0EE5__getB8ue170006Ev, symObjAddr: 0x1544, symBinAddr: 0x100004018, symSize: 0x14 }
  - { offsetInCU: 0x14C63, offset: 0x14C63, size: 0x8, addend: 0x0, symName: __ZNSt3__16vectorIfNS_9allocatorIfEEE21_ConstructTransactionC1B8ue170006ERS3_m, symObjAddr: 0x1594, symBinAddr: 0x100004068, symSize: 0x3C }
  - { offsetInCU: 0x14CAB, offset: 0x14CAB, size: 0x8, addend: 0x0, symName: __ZNSt3__16vectorIfNS_9allocatorIfEEE21_ConstructTransactionD1B8ue170006Ev, symObjAddr: 0x1650, symBinAddr: 0x100004124, symSize: 0x2C }
  - { offsetInCU: 0x14CD5, offset: 0x14CD5, size: 0x8, addend: 0x0, symName: __ZNSt3__16vectorIfNS_9allocatorIfEEE21_ConstructTransactionC2B8ue170006ERS3_m, symObjAddr: 0x167C, symBinAddr: 0x100004150, symSize: 0x44 }
  - { offsetInCU: 0x14D3D, offset: 0x14D3D, size: 0x8, addend: 0x0, symName: __ZNSt3__14pairIPKfS2_EC1B8ue170006IS2_S2_LPv0EEEOT_OT0_, symObjAddr: 0x1814, symBinAddr: 0x1000042E8, symSize: 0x3C }
  - { offsetInCU: 0x14D9B, offset: 0x14D9B, size: 0x8, addend: 0x0, symName: __ZNSt3__14pairIPKfS2_EC2B8ue170006IS2_S2_LPv0EEEOT_OT0_, symObjAddr: 0x1850, symBinAddr: 0x100004324, symSize: 0x34 }
  - { offsetInCU: 0x14DF9, offset: 0x14DF9, size: 0x8, addend: 0x0, symName: __ZNSt3__118__unwrap_iter_implIPKfLb1EE8__unwrapB8ue170006ES2_, symObjAddr: 0x1884, symBinAddr: 0x100004358, symSize: 0x24 }
  - { offsetInCU: 0x14E1C, offset: 0x14E1C, size: 0x8, addend: 0x0, symName: __ZNSt3__118__unwrap_iter_implIPfLb1EE8__unwrapB8ue170006ES1_, symObjAddr: 0x18BC, symBinAddr: 0x100004390, symSize: 0x24 }
  - { offsetInCU: 0x14E3F, offset: 0x14E3F, size: 0x8, addend: 0x0, symName: __ZNSt3__118__unwrap_iter_implIPfLb1EE8__rewrapB8ue170006ES1_S1_, symObjAddr: 0x18F4, symBinAddr: 0x1000043C8, symSize: 0x50 }
  - { offsetInCU: 0x14E70, offset: 0x14E70, size: 0x8, addend: 0x0, symName: __ZNSt3__16vectorIfNS_9allocatorIfEEE21_ConstructTransactionD2B8ue170006Ev, symObjAddr: 0x1944, symBinAddr: 0x100004418, symSize: 0x20 }
  - { offsetInCU: 0x14EA0, offset: 0x14EA0, size: 0x8, addend: 0x0, symName: __ZNSt3__116allocator_traitsINS_9allocatorIfEEE9constructB8ue170006IfJfEvEEvRS2_PT_DpOT0_, symObjAddr: 0x1964, symBinAddr: 0x100004438, symSize: 0x34 }
  - { offsetInCU: 0x14EF7, offset: 0x14EF7, size: 0x8, addend: 0x0, symName: __ZNSt3__19allocatorIfE9constructB8ue170006IfJfEEEvPT_DpOT0_, symObjAddr: 0x19D8, symBinAddr: 0x1000044AC, symSize: 0x28 }
  - { offsetInCU: 0x14F71, offset: 0x14F71, size: 0x8, addend: 0x0, symName: __ZNKSt3__123__move_backward_trivialclB8ue170006IffLi0EEENS_4pairIPT_PT0_EES4_S4_S6_, symObjAddr: 0x1B9C, symBinAddr: 0x100004670, symSize: 0x48 }
  - { offsetInCU: 0x14FD9, offset: 0x14FD9, size: 0x8, addend: 0x0, symName: __ZNSt3__14pairIPfS1_EC1B8ue170006IRS1_S4_LPv0EEEOT_OT0_, symObjAddr: 0x1D74, symBinAddr: 0x100004848, symSize: 0x3C }
  - { offsetInCU: 0x15037, offset: 0x15037, size: 0x8, addend: 0x0, symName: __ZNSt3__14pairIPfS1_EC2B8ue170006IRS1_S4_LPv0EEEOT_OT0_, symObjAddr: 0x1DB0, symBinAddr: 0x100004884, symSize: 0x34 }
  - { offsetInCU: 0x1509B, offset: 0x1509B, size: 0x8, addend: 0x0, symName: __ZNSt3__14pairIPfS1_EC1B8ue170006IS1_S1_LPv0EEEOT_OT0_, symObjAddr: 0x1DE4, symBinAddr: 0x1000048B8, symSize: 0x3C }
  - { offsetInCU: 0x150F9, offset: 0x150F9, size: 0x8, addend: 0x0, symName: __ZNSt3__14pairIPfS1_EC2B8ue170006IS1_S1_LPv0EEEOT_OT0_, symObjAddr: 0x1E20, symBinAddr: 0x1000048F4, symSize: 0x34 }
  - { offsetInCU: 0x1517B, offset: 0x1517B, size: 0x8, addend: 0x0, symName: __ZNKSt3__114__copy_trivialclB8ue170006IKffLi0EEENS_4pairIPT_PT0_EES5_S5_S7_, symObjAddr: 0x1F90, symBinAddr: 0x100004A64, symSize: 0x48 }
  - { offsetInCU: 0x151E8, offset: 0x151E8, size: 0x8, addend: 0x0, symName: __ZNSt3__14pairIPKfPfEC1B8ue170006IRS2_S3_LPv0EEEOT_OT0_, symObjAddr: 0x2158, symBinAddr: 0x100004C2C, symSize: 0x3C }
  - { offsetInCU: 0x15246, offset: 0x15246, size: 0x8, addend: 0x0, symName: __ZNSt3__14pairIPKfPfEC2B8ue170006IRS2_S3_LPv0EEEOT_OT0_, symObjAddr: 0x2194, symBinAddr: 0x100004C68, symSize: 0x34 }
  - { offsetInCU: 0x152A4, offset: 0x152A4, size: 0x8, addend: 0x0, symName: __ZNSt3__14pairIPKfPfEC1B8ue170006IS2_S3_LPv0EEEOT_OT0_, symObjAddr: 0x21C8, symBinAddr: 0x100004C9C, symSize: 0x3C }
  - { offsetInCU: 0x15302, offset: 0x15302, size: 0x8, addend: 0x0, symName: __ZNSt3__14pairIPKfPfEC2B8ue170006IS2_S3_LPv0EEEOT_OT0_, symObjAddr: 0x2204, symBinAddr: 0x100004CD8, symSize: 0x34 }
  - { offsetInCU: 0x15360, offset: 0x15360, size: 0x8, addend: 0x0, symName: __ZNSt3__118__unwrap_iter_implIPKfLb1EE8__rewrapB8ue170006ES2_S2_, symObjAddr: 0x2274, symBinAddr: 0x100004D48, symSize: 0x50 }
  - { offsetInCU: 0x15391, offset: 0x15391, size: 0x8, addend: 0x0, symName: __ZNSt3__117__compressed_pairIPfNS_9allocatorIfEEE6secondB8ue170006Ev, symObjAddr: 0x22C4, symBinAddr: 0x100004D98, symSize: 0x24 }
  - { offsetInCU: 0x153B7, offset: 0x153B7, size: 0x8, addend: 0x0, symName: __ZNSt3__122__compressed_pair_elemINS_9allocatorIfEELi1ELb1EE5__getB8ue170006Ev, symObjAddr: 0x22E8, symBinAddr: 0x100004DBC, symSize: 0x14 }
  - { offsetInCU: 0x153DD, offset: 0x153DD, size: 0x8, addend: 0x0, symName: __ZNKSt3__16vectorIfNS_9allocatorIfEEE8max_sizeEv, symObjAddr: 0x22FC, symBinAddr: 0x100004DD0, symSize: 0x60 }
  - { offsetInCU: 0x15405, offset: 0x15405, size: 0x8, addend: 0x0, symName: __ZNKSt3__16vectorIfNS_9allocatorIfEEE20__throw_length_errorB8ue170006Ev, symObjAddr: 0x235C, symBinAddr: 0x100004E30, symSize: 0x1C }
  - { offsetInCU: 0x1542B, offset: 0x1542B, size: 0x8, addend: 0x0, symName: __ZNKSt3__16vectorIfNS_9allocatorIfEEE8capacityB8ue170006Ev, symObjAddr: 0x2378, symBinAddr: 0x100004E4C, symSize: 0x40 }
  - { offsetInCU: 0x1545B, offset: 0x1545B, size: 0x8, addend: 0x0, symName: __ZNSt3__116allocator_traitsINS_9allocatorIfEEE8max_sizeB8ue170006IS2_vEEmRKS2_, symObjAddr: 0x2410, symBinAddr: 0x100004EE4, symSize: 0x24 }
  - { offsetInCU: 0x15489, offset: 0x15489, size: 0x8, addend: 0x0, symName: __ZNKSt3__16vectorIfNS_9allocatorIfEEE7__allocB8ue170006Ev, symObjAddr: 0x2434, symBinAddr: 0x100004F08, symSize: 0x28 }
  - { offsetInCU: 0x154AF, offset: 0x154AF, size: 0x8, addend: 0x0, symName: __ZNSt3__114numeric_limitsIlE3maxB8ue170006Ev, symObjAddr: 0x245C, symBinAddr: 0x100004F30, symSize: 0x14 }
  - { offsetInCU: 0x154D7, offset: 0x154D7, size: 0x8, addend: 0x0, symName: __ZNKSt3__16__lessIvvEclB8ue170006ImmEEbRKT_RKT0_, symObjAddr: 0x24C4, symBinAddr: 0x100004F98, symSize: 0x34 }
  - { offsetInCU: 0x1552B, offset: 0x1552B, size: 0x8, addend: 0x0, symName: __ZNKSt3__19allocatorIfE8max_sizeB8ue170006Ev, symObjAddr: 0x24F8, symBinAddr: 0x100004FCC, symSize: 0x14 }
  - { offsetInCU: 0x15551, offset: 0x15551, size: 0x8, addend: 0x0, symName: __ZNKSt3__117__compressed_pairIPfNS_9allocatorIfEEE6secondB8ue170006Ev, symObjAddr: 0x250C, symBinAddr: 0x100004FE0, symSize: 0x24 }
  - { offsetInCU: 0x15577, offset: 0x15577, size: 0x8, addend: 0x0, symName: __ZNKSt3__122__compressed_pair_elemINS_9allocatorIfEELi1ELb1EE5__getB8ue170006Ev, symObjAddr: 0x2530, symBinAddr: 0x100005004, symSize: 0x14 }
  - { offsetInCU: 0x1559D, offset: 0x1559D, size: 0x8, addend: 0x0, symName: __ZNSt3__123__libcpp_numeric_limitsIlLb1EE3maxB8ue170006Ev, symObjAddr: 0x2544, symBinAddr: 0x100005018, symSize: 0x8 }
  - { offsetInCU: 0x155B1, offset: 0x155B1, size: 0x8, addend: 0x0, symName: __ZNSt12length_errorC1B8ue170006EPKc, symObjAddr: 0x25B0, symBinAddr: 0x100005084, symSize: 0x34 }
  - { offsetInCU: 0x155E9, offset: 0x155E9, size: 0x8, addend: 0x0, symName: __ZNSt12length_errorC2B8ue170006EPKc, symObjAddr: 0x25E4, symBinAddr: 0x1000050B8, symSize: 0x4C }
  - { offsetInCU: 0x15621, offset: 0x15621, size: 0x8, addend: 0x0, symName: __ZNKSt3__16vectorIfNS_9allocatorIfEEE9__end_capB8ue170006Ev, symObjAddr: 0x2630, symBinAddr: 0x100005104, symSize: 0x28 }
  - { offsetInCU: 0x15647, offset: 0x15647, size: 0x8, addend: 0x0, symName: __ZNKSt3__117__compressed_pairIPfNS_9allocatorIfEEE5firstB8ue170006Ev, symObjAddr: 0x2658, symBinAddr: 0x10000512C, symSize: 0x24 }
  - { offsetInCU: 0x1566D, offset: 0x1566D, size: 0x8, addend: 0x0, symName: __ZNKSt3__122__compressed_pair_elemIPfLi0ELb0EE5__getB8ue170006Ev, symObjAddr: 0x267C, symBinAddr: 0x100005150, symSize: 0x14 }
  - { offsetInCU: 0x15693, offset: 0x15693, size: 0x8, addend: 0x0, symName: __ZNSt3__114__split_bufferIfRNS_9allocatorIfEEEC2EmmS3_, symObjAddr: 0x26E4, symBinAddr: 0x1000051B8, symSize: 0xD4 }
  - { offsetInCU: 0x15706, offset: 0x15706, size: 0x8, addend: 0x0, symName: __ZNSt3__117__compressed_pairIPfRNS_9allocatorIfEEEC1B8ue170006IDnS4_EEOT_OT0_, symObjAddr: 0x27B8, symBinAddr: 0x10000528C, symSize: 0x3C }
  - { offsetInCU: 0x1575E, offset: 0x1575E, size: 0x8, addend: 0x0, symName: __ZNSt3__114__split_bufferIfRNS_9allocatorIfEEE7__allocB8ue170006Ev, symObjAddr: 0x2834, symBinAddr: 0x100005308, symSize: 0x28 }
  - { offsetInCU: 0x15784, offset: 0x15784, size: 0x8, addend: 0x0, symName: __ZNSt3__114__split_bufferIfRNS_9allocatorIfEEE9__end_capB8ue170006Ev, symObjAddr: 0x285C, symBinAddr: 0x100005330, symSize: 0x28 }
  - { offsetInCU: 0x157AA, offset: 0x157AA, size: 0x8, addend: 0x0, symName: __ZNSt3__117__compressed_pairIPfRNS_9allocatorIfEEEC2B8ue170006IDnS4_EEOT_OT0_, symObjAddr: 0x2884, symBinAddr: 0x100005358, symSize: 0x48 }
  - { offsetInCU: 0x15802, offset: 0x15802, size: 0x8, addend: 0x0, symName: __ZNSt3__122__compressed_pair_elemIRNS_9allocatorIfEELi1ELb0EEC2B8ue170006IS3_vEEOT_, symObjAddr: 0x28CC, symBinAddr: 0x1000053A0, symSize: 0x20 }
  - { offsetInCU: 0x15844, offset: 0x15844, size: 0x8, addend: 0x0, symName: __ZNSt3__19allocatorIfE8allocateB8ue170006Em, symObjAddr: 0x28EC, symBinAddr: 0x1000053C0, symSize: 0x58 }
  - { offsetInCU: 0x15878, offset: 0x15878, size: 0x8, addend: 0x0, symName: __ZNSt3__117__compressed_pairIPfRNS_9allocatorIfEEE6secondB8ue170006Ev, symObjAddr: 0x2A48, symBinAddr: 0x10000551C, symSize: 0x28 }
  - { offsetInCU: 0x1589E, offset: 0x1589E, size: 0x8, addend: 0x0, symName: __ZNSt3__122__compressed_pair_elemIRNS_9allocatorIfEELi1ELb0EE5__getB8ue170006Ev, symObjAddr: 0x2A70, symBinAddr: 0x100005544, symSize: 0x18 }
  - { offsetInCU: 0x158C4, offset: 0x158C4, size: 0x8, addend: 0x0, symName: __ZNSt3__117__compressed_pairIPfRNS_9allocatorIfEEE5firstB8ue170006Ev, symObjAddr: 0x2A88, symBinAddr: 0x10000555C, symSize: 0x24 }
  - { offsetInCU: 0x158F4, offset: 0x158F4, size: 0x8, addend: 0x0, symName: __ZNSt3__114__split_bufferIfRNS_9allocatorIfEEE21_ConstructTransactionC1B8ue170006EPPfm, symObjAddr: 0x2AAC, symBinAddr: 0x100005580, symSize: 0x3C }
  - { offsetInCU: 0x1593A, offset: 0x1593A, size: 0x8, addend: 0x0, symName: __ZNSt3__116allocator_traitsINS_9allocatorIfEEE9constructB8ue170006IfJRKfEvEEvRS2_PT_DpOT0_, symObjAddr: 0x2AE8, symBinAddr: 0x1000055BC, symSize: 0x34 }
  - { offsetInCU: 0x15991, offset: 0x15991, size: 0x8, addend: 0x0, symName: __ZNSt3__114__split_bufferIfRNS_9allocatorIfEEE21_ConstructTransactionD1B8ue170006Ev, symObjAddr: 0x2B1C, symBinAddr: 0x1000055F0, symSize: 0x2C }
  - { offsetInCU: 0x159BB, offset: 0x159BB, size: 0x8, addend: 0x0, symName: __ZNSt3__114__split_bufferIfRNS_9allocatorIfEEE21_ConstructTransactionC2B8ue170006EPPfm, symObjAddr: 0x2B48, symBinAddr: 0x10000561C, symSize: 0x44 }
  - { offsetInCU: 0x15A01, offset: 0x15A01, size: 0x8, addend: 0x0, symName: __ZNSt3__19allocatorIfE9constructB8ue170006IfJRKfEEEvPT_DpOT0_, symObjAddr: 0x2B8C, symBinAddr: 0x100005660, symSize: 0x28 }
  - { offsetInCU: 0x15A57, offset: 0x15A57, size: 0x8, addend: 0x0, symName: __ZNSt3__114__split_bufferIfRNS_9allocatorIfEEE21_ConstructTransactionD2B8ue170006Ev, symObjAddr: 0x2BB4, symBinAddr: 0x100005688, symSize: 0x20 }
  - { offsetInCU: 0x15A81, offset: 0x15A81, size: 0x8, addend: 0x0, symName: __ZNKSt3__16vectorIfNS_9allocatorIfEEE17__annotate_deleteB8ue170006Ev, symObjAddr: 0x2BD4, symBinAddr: 0x1000056A8, symSize: 0xB8 }
  - { offsetInCU: 0x15AA7, offset: 0x15AA7, size: 0x8, addend: 0x0, symName: __ZNSt3__116reverse_iteratorIPfEC1B8ue170006ES1_, symObjAddr: 0x2D04, symBinAddr: 0x1000057D8, symSize: 0x34 }
  - { offsetInCU: 0x15ADF, offset: 0x15ADF, size: 0x8, addend: 0x0, symName: __ZNKSt3__116reverse_iteratorIPfE4baseB8ue170006Ev, symObjAddr: 0x2D38, symBinAddr: 0x10000580C, symSize: 0x18 }
  - { offsetInCU: 0x15B05, offset: 0x15B05, size: 0x8, addend: 0x0, symName: __ZNKSt3__16vectorIfNS_9allocatorIfEEE14__annotate_newB8ue170006Em, symObjAddr: 0x2DC4, symBinAddr: 0x100005898, symSize: 0xAC }
  - { offsetInCU: 0x15B3A, offset: 0x15B3A, size: 0x8, addend: 0x0, symName: __ZNKSt3__16vectorIfNS_9allocatorIfEEE31__annotate_contiguous_containerB8ue170006EPKvS5_S5_S5_, symObjAddr: 0x2E70, symBinAddr: 0x100005944, symSize: 0x20 }
  - { offsetInCU: 0x15B8C, offset: 0x15B8C, size: 0x8, addend: 0x0, symName: __ZNKSt3__16vectorIfNS_9allocatorIfEEE4dataB8ue170006Ev, symObjAddr: 0x2E90, symBinAddr: 0x100005964, symSize: 0x28 }
  - { offsetInCU: 0x15BD6, offset: 0x15BD6, size: 0x8, addend: 0x0, symName: __ZNKSt3__111__move_loopINS_17_ClassicAlgPolicyEEclB8ue170006INS_16reverse_iteratorIPfEES6_S6_EENS_4pairIT_T1_EES8_T0_S9_, symObjAddr: 0x31A8, symBinAddr: 0x100005C7C, symSize: 0xA0 }
  - { offsetInCU: 0x15C41, offset: 0x15C41, size: 0x8, addend: 0x0, symName: __ZNSt3__18_IterOpsINS_17_ClassicAlgPolicyEE11__iter_moveB8ue170006IRNS_16reverse_iteratorIPfEEEENS_9enable_ifIXsr12is_referenceIDTdeclsr3stdE7declvalIRT_EEEEE5valueEDTclsr3stdE4movedeclsr3stdE7declvalISA_EEEEE4typeEOS9_, symObjAddr: 0x33DC, symBinAddr: 0x100005EB0, symSize: 0x28 }
  - { offsetInCU: 0x15C6D, offset: 0x15C6D, size: 0x8, addend: 0x0, symName: __ZNKSt3__116reverse_iteratorIPfEdeB8ue170006Ev, symObjAddr: 0x3404, symBinAddr: 0x100005ED8, symSize: 0x28 }
  - { offsetInCU: 0x15CA1, offset: 0x15CA1, size: 0x8, addend: 0x0, symName: __ZNSt3__116reverse_iteratorIPfEppB8ue170006Ev, symObjAddr: 0x342C, symBinAddr: 0x100005F00, symSize: 0x20 }
  - { offsetInCU: 0x15CC7, offset: 0x15CC7, size: 0x8, addend: 0x0, symName: __ZNSt3__18_IterOpsINS_17_ClassicAlgPolicyEE25__validate_iter_referenceB8ue170006IRNS_16reverse_iteratorIPfEEEEvv, symObjAddr: 0x344C, symBinAddr: 0x100005F20, symSize: 0x4 }
  - { offsetInCU: 0x15CE5, offset: 0x15CE5, size: 0x8, addend: 0x0, symName: __ZNSt3__118__unwrap_iter_implINS_16reverse_iteratorIPfEELb0EE8__unwrapB8ue170006ES3_, symObjAddr: 0x3450, symBinAddr: 0x100005F24, symSize: 0x24 }
  - { offsetInCU: 0x15D0E, offset: 0x15D0E, size: 0x8, addend: 0x0, symName: __ZNSt3__14pairINS_16reverse_iteratorIPfEES3_EC1B8ue170006IS3_S3_LPv0EEEOT_OT0_, symObjAddr: 0x3474, symBinAddr: 0x100005F48, symSize: 0x3C }
  - { offsetInCU: 0x15D6C, offset: 0x15D6C, size: 0x8, addend: 0x0, symName: __ZNSt3__14pairINS_16reverse_iteratorIPfEES3_EC2B8ue170006IS3_S3_LPv0EEEOT_OT0_, symObjAddr: 0x34B0, symBinAddr: 0x100005F84, symSize: 0x34 }
  - { offsetInCU: 0x15DCA, offset: 0x15DCA, size: 0x8, addend: 0x0, symName: __ZNSt3__118__unwrap_iter_implINS_16reverse_iteratorIPfEELb0EE8__rewrapB8ue170006ES3_S3_, symObjAddr: 0x34E4, symBinAddr: 0x100005FB8, symSize: 0x2C }
  - { offsetInCU: 0x15DF7, offset: 0x15DF7, size: 0x8, addend: 0x0, symName: __ZNSt3__116reverse_iteratorIPfEC2B8ue170006ES1_, symObjAddr: 0x3510, symBinAddr: 0x100005FE4, symSize: 0x28 }
  - { offsetInCU: 0x15E39, offset: 0x15E39, size: 0x8, addend: 0x0, symName: __ZNKSt3__114__move_trivialclB8ue170006IffLi0EEENS_4pairIPT_PT0_EES4_S4_S6_, symObjAddr: 0x36B4, symBinAddr: 0x100006188, symSize: 0x48 }
  - { offsetInCU: 0x15EA1, offset: 0x15EA1, size: 0x8, addend: 0x0, symName: __ZNSt3__14pairIPfS1_EC1B8ue170006IRS1_S1_LPv0EEEOT_OT0_, symObjAddr: 0x37B4, symBinAddr: 0x100006288, symSize: 0x3C }
  - { offsetInCU: 0x15EFF, offset: 0x15EFF, size: 0x8, addend: 0x0, symName: __ZNSt3__14pairIPfS1_EC2B8ue170006IRS1_S1_LPv0EEEOT_OT0_, symObjAddr: 0x37F0, symBinAddr: 0x1000062C4, symSize: 0x34 }
  - { offsetInCU: 0x15F5D, offset: 0x15F5D, size: 0x8, addend: 0x0, symName: __ZNSt3__114__split_bufferIfRNS_9allocatorIfEEED2Ev, symObjAddr: 0x3824, symBinAddr: 0x1000062F8, symSize: 0x8C }
  - { offsetInCU: 0x15F89, offset: 0x15F89, size: 0x8, addend: 0x0, symName: __ZNSt3__114__split_bufferIfRNS_9allocatorIfEEE5clearB8ue170006Ev, symObjAddr: 0x38B0, symBinAddr: 0x100006384, symSize: 0x28 }
  - { offsetInCU: 0x15FAF, offset: 0x15FAF, size: 0x8, addend: 0x0, symName: __ZNSt3__116allocator_traitsINS_9allocatorIfEEE10deallocateB8ue170006ERS2_Pfm, symObjAddr: 0x38D8, symBinAddr: 0x1000063AC, symSize: 0x34 }
  - { offsetInCU: 0x15FF1, offset: 0x15FF1, size: 0x8, addend: 0x0, symName: __ZNKSt3__114__split_bufferIfRNS_9allocatorIfEEE8capacityB8ue170006Ev, symObjAddr: 0x390C, symBinAddr: 0x1000063E0, symSize: 0x40 }
  - { offsetInCU: 0x16017, offset: 0x16017, size: 0x8, addend: 0x0, symName: __ZNSt3__114__split_bufferIfRNS_9allocatorIfEEE17__destruct_at_endB8ue170006EPf, symObjAddr: 0x394C, symBinAddr: 0x100006420, symSize: 0x2C }
  - { offsetInCU: 0x1604B, offset: 0x1604B, size: 0x8, addend: 0x0, symName: __ZNSt3__114__split_bufferIfRNS_9allocatorIfEEE17__destruct_at_endB8ue170006EPfNS_17integral_constantIbLb0EEE, symObjAddr: 0x3978, symBinAddr: 0x10000644C, symSize: 0x80 }
  - { offsetInCU: 0x1608B, offset: 0x1608B, size: 0x8, addend: 0x0, symName: __ZNSt3__116allocator_traitsINS_9allocatorIfEEE7destroyB8ue170006IfvEEvRS2_PT_, symObjAddr: 0x39F8, symBinAddr: 0x1000064CC, symSize: 0x2C }
  - { offsetInCU: 0x160C8, offset: 0x160C8, size: 0x8, addend: 0x0, symName: __ZNSt3__19allocatorIfE7destroyB8ue170006EPf, symObjAddr: 0x3A24, symBinAddr: 0x1000064F8, symSize: 0x14 }
  - { offsetInCU: 0x160FC, offset: 0x160FC, size: 0x8, addend: 0x0, symName: __ZNSt3__19allocatorIfE10deallocateB8ue170006EPfm, symObjAddr: 0x3A38, symBinAddr: 0x10000650C, symSize: 0x40 }
  - { offsetInCU: 0x1613E, offset: 0x1613E, size: 0x8, addend: 0x0, symName: __ZNKSt3__114__split_bufferIfRNS_9allocatorIfEEE9__end_capB8ue170006Ev, symObjAddr: 0x3B80, symBinAddr: 0x100006654, symSize: 0x28 }
  - { offsetInCU: 0x16164, offset: 0x16164, size: 0x8, addend: 0x0, symName: __ZNKSt3__117__compressed_pairIPfRNS_9allocatorIfEEE5firstB8ue170006Ev, symObjAddr: 0x3BA8, symBinAddr: 0x10000667C, symSize: 0x24 }
  - { offsetInCU: 0x1618A, offset: 0x1618A, size: 0x8, addend: 0x0, symName: __ZNSt3__111__wrap_iterIPfEC1B8ue170006ES1_, symObjAddr: 0x3BCC, symBinAddr: 0x1000066A0, symSize: 0x34 }
  - { offsetInCU: 0x161C2, offset: 0x161C2, size: 0x8, addend: 0x0, symName: __ZNSt3__111__wrap_iterIPfEC2B8ue170006ES1_, symObjAddr: 0x3C00, symBinAddr: 0x1000066D4, symSize: 0x20 }
  - { offsetInCU: 0x161FA, offset: 0x161FA, size: 0x8, addend: 0x0, symName: __ZNSt3__111__wrap_iterIPKfEC2B8ue170006IPfEERKNS0_IT_EEPNS_9enable_ifIXsr14is_convertibleIS6_S2_EE5valueEvE4typeE, symObjAddr: 0x3C48, symBinAddr: 0x10000671C, symSize: 0x40 }
  - { offsetInCU: 0x16245, offset: 0x16245, size: 0x8, addend: 0x0, symName: __ZNSt3__114basic_ofstreamIcNS_11char_traitsIcEEED2Ev, symObjAddr: 0x3C88, symBinAddr: 0x10000675C, symSize: 0x64 }
  - { offsetInCU: 0x1627F, offset: 0x1627F, size: 0x8, addend: 0x0, symName: __ZTv0_n24_NSt3__114basic_ofstreamIcNS_11char_traitsIcEEED1Ev, symObjAddr: 0x3CEC, symBinAddr: 0x1000067C0, symSize: 0x28 }
  - { offsetInCU: 0x16296, offset: 0x16296, size: 0x8, addend: 0x0, symName: __ZN9AudioDataD2Ev, symObjAddr: 0x3D14, symBinAddr: 0x1000067E8, symSize: 0x2C }
  - { offsetInCU: 0x162C2, offset: 0x162C2, size: 0x8, addend: 0x0, symName: __ZNSt3__16vectorIfNS_9allocatorIfEEED1B8ue170006Ev, symObjAddr: 0x3D40, symBinAddr: 0x100006814, symSize: 0x2C }
  - { offsetInCU: 0x162EC, offset: 0x162EC, size: 0x8, addend: 0x0, symName: __ZNSt3__16vectorIfNS_9allocatorIfEEED2B8ue170006Ev, symObjAddr: 0x3D6C, symBinAddr: 0x100006840, symSize: 0x44 }
  - { offsetInCU: 0x16316, offset: 0x16316, size: 0x8, addend: 0x0, symName: __ZNSt3__16vectorIfNS_9allocatorIfEEE16__destroy_vectorC1B8ue170006ERS3_, symObjAddr: 0x3DB0, symBinAddr: 0x100006884, symSize: 0x34 }
  - { offsetInCU: 0x1634F, offset: 0x1634F, size: 0x8, addend: 0x0, symName: __ZNSt3__16vectorIfNS_9allocatorIfEEE16__destroy_vectorclB8ue170006Ev, symObjAddr: 0x3DE4, symBinAddr: 0x1000068B8, symSize: 0x90 }
  - { offsetInCU: 0x16375, offset: 0x16375, size: 0x8, addend: 0x0, symName: __ZNSt3__16vectorIfNS_9allocatorIfEEE16__destroy_vectorC2B8ue170006ERS3_, symObjAddr: 0x3E74, symBinAddr: 0x100006948, symSize: 0x20 }
  - { offsetInCU: 0x163AE, offset: 0x163AE, size: 0x8, addend: 0x0, symName: __ZNSt3__16vectorIfNS_9allocatorIfEEE7__clearB8ue170006Ev, symObjAddr: 0x3E94, symBinAddr: 0x100006968, symSize: 0x28 }
  - { offsetInCU: 0x163D4, offset: 0x163D4, size: 0x8, addend: 0x0, symName: __ZNSt3__16vectorIfNS_9allocatorIfEEE22__base_destruct_at_endB8ue170006EPf, symObjAddr: 0x3EBC, symBinAddr: 0x100006990, symSize: 0x8C }
  - { offsetInCU: 0x16418, offset: 0x16418, size: 0x8, addend: 0x0, symName: __ZNSt3__111char_traitsIcE6lengthB8ue170006EPKc, symObjAddr: 0x4134, symBinAddr: 0x100006C08, symSize: 0x34 }
  - { offsetInCU: 0x16459, offset: 0x16459, size: 0x8, addend: 0x0, symName: __ZNKSt3__113basic_ostreamIcNS_11char_traitsIcEEE6sentrycvbB8ue170006Ev, symObjAddr: 0x4168, symBinAddr: 0x100006C3C, symSize: 0x1C }
  - { offsetInCU: 0x1647F, offset: 0x1647F, size: 0x8, addend: 0x0, symName: __ZNSt3__119ostreambuf_iteratorIcNS_11char_traitsIcEEEC1B8ue170006ERNS_13basic_ostreamIcS2_EE, symObjAddr: 0x43C4, symBinAddr: 0x100006E98, symSize: 0x34 }
  - { offsetInCU: 0x164B7, offset: 0x164B7, size: 0x8, addend: 0x0, symName: __ZNKSt3__18ios_base5flagsB8ue170006Ev, symObjAddr: 0x43F8, symBinAddr: 0x100006ECC, symSize: 0x18 }
  - { offsetInCU: 0x164DF, offset: 0x164DF, size: 0x8, addend: 0x0, symName: __ZNKSt3__19basic_iosIcNS_11char_traitsIcEEE4fillB8ue170006Ev, symObjAddr: 0x4410, symBinAddr: 0x100006EE4, symSize: 0x64 }
  - { offsetInCU: 0x16507, offset: 0x16507, size: 0x8, addend: 0x0, symName: __ZNKSt3__119ostreambuf_iteratorIcNS_11char_traitsIcEEE6failedB8ue170006Ev, symObjAddr: 0x4474, symBinAddr: 0x100006F48, symSize: 0x24 }
  - { offsetInCU: 0x1652D, offset: 0x1652D, size: 0x8, addend: 0x0, symName: __ZNSt3__19basic_iosIcNS_11char_traitsIcEEE8setstateB8ue170006Ej, symObjAddr: 0x4498, symBinAddr: 0x100006F6C, symSize: 0x2C }
  - { offsetInCU: 0x16562, offset: 0x16562, size: 0x8, addend: 0x0, symName: __ZNKSt3__18ios_base5widthB8ue170006Ev, symObjAddr: 0x44C4, symBinAddr: 0x100006F98, symSize: 0x18 }
  - { offsetInCU: 0x1658A, offset: 0x1658A, size: 0x8, addend: 0x0, symName: __ZNSt3__115basic_streambufIcNS_11char_traitsIcEEE5sputnB8ue170006EPKcl, symObjAddr: 0x44DC, symBinAddr: 0x100006FB0, symSize: 0x3C }
  - { offsetInCU: 0x165CC, offset: 0x165CC, size: 0x8, addend: 0x0, symName: __ZNSt3__112basic_stringIcNS_11char_traitsIcEENS_9allocatorIcEEEC1B8ue170006Emc, symObjAddr: 0x4518, symBinAddr: 0x100006FEC, symSize: 0x3C }
  - { offsetInCU: 0x16614, offset: 0x16614, size: 0x8, addend: 0x0, symName: __ZNSt3__112basic_stringIcNS_11char_traitsIcEENS_9allocatorIcEEE4dataB8ue170006Ev, symObjAddr: 0x4554, symBinAddr: 0x100007028, symSize: 0x28 }
  - { offsetInCU: 0x1663A, offset: 0x1663A, size: 0x8, addend: 0x0, symName: __ZNSt3__18ios_base5widthB8ue170006El, symObjAddr: 0x457C, symBinAddr: 0x100007050, symSize: 0x2C }
  - { offsetInCU: 0x16680, offset: 0x16680, size: 0x8, addend: 0x0, symName: __ZNSt3__112basic_stringIcNS_11char_traitsIcEENS_9allocatorIcEEEC2B8ue170006Emc, symObjAddr: 0x45A8, symBinAddr: 0x10000707C, symSize: 0x4C }
  - { offsetInCU: 0x166C8, offset: 0x166C8, size: 0x8, addend: 0x0, symName: __ZNSt3__117__compressed_pairINS_12basic_stringIcNS_11char_traitsIcEENS_9allocatorIcEEE5__repES5_EC1B8ue170006INS_18__default_init_tagESA_EEOT_OT0_, symObjAddr: 0x45F4, symBinAddr: 0x1000070C8, symSize: 0x3C }
  - { offsetInCU: 0x16720, offset: 0x16720, size: 0x8, addend: 0x0, symName: __ZNSt3__117__compressed_pairINS_12basic_stringIcNS_11char_traitsIcEENS_9allocatorIcEEE5__repES5_EC2B8ue170006INS_18__default_init_tagESA_EEOT_OT0_, symObjAddr: 0x4630, symBinAddr: 0x100007104, symSize: 0x3C }
  - { offsetInCU: 0x16778, offset: 0x16778, size: 0x8, addend: 0x0, symName: __ZNSt3__122__compressed_pair_elemINS_12basic_stringIcNS_11char_traitsIcEENS_9allocatorIcEEE5__repELi0ELb0EEC2B8ue170006ENS_18__default_init_tagE, symObjAddr: 0x466C, symBinAddr: 0x100007140, symSize: 0x14 }
  - { offsetInCU: 0x167AC, offset: 0x167AC, size: 0x8, addend: 0x0, symName: __ZNSt3__122__compressed_pair_elemINS_9allocatorIcEELi1ELb1EEC2B8ue170006ENS_18__default_init_tagE, symObjAddr: 0x4680, symBinAddr: 0x100007154, symSize: 0x2C }
  - { offsetInCU: 0x167E0, offset: 0x167E0, size: 0x8, addend: 0x0, symName: __ZNSt3__19allocatorIcEC2B8ue170006Ev, symObjAddr: 0x46AC, symBinAddr: 0x100007180, symSize: 0x2C }
  - { offsetInCU: 0x1680A, offset: 0x1680A, size: 0x8, addend: 0x0, symName: __ZNSt3__116__non_trivial_ifILb1ENS_9allocatorIcEEEC2B8ue170006Ev, symObjAddr: 0x46D8, symBinAddr: 0x1000071AC, symSize: 0x14 }
  - { offsetInCU: 0x16834, offset: 0x16834, size: 0x8, addend: 0x0, symName: __ZNSt3__112basic_stringIcNS_11char_traitsIcEENS_9allocatorIcEEE13__get_pointerB8ue170006Ev, symObjAddr: 0x4700, symBinAddr: 0x1000071D4, symSize: 0x54 }
  - { offsetInCU: 0x1685A, offset: 0x1685A, size: 0x8, addend: 0x0, symName: __ZNKSt3__112basic_stringIcNS_11char_traitsIcEENS_9allocatorIcEEE9__is_longB8ue170006Ev, symObjAddr: 0x4754, symBinAddr: 0x100007228, symSize: 0x38 }
  - { offsetInCU: 0x16880, offset: 0x16880, size: 0x8, addend: 0x0, symName: __ZNSt3__112basic_stringIcNS_11char_traitsIcEENS_9allocatorIcEEE18__get_long_pointerB8ue170006Ev, symObjAddr: 0x478C, symBinAddr: 0x100007260, symSize: 0x28 }
  - { offsetInCU: 0x168A6, offset: 0x168A6, size: 0x8, addend: 0x0, symName: __ZNSt3__112basic_stringIcNS_11char_traitsIcEENS_9allocatorIcEEE19__get_short_pointerB8ue170006Ev, symObjAddr: 0x47B4, symBinAddr: 0x100007288, symSize: 0x28 }
  - { offsetInCU: 0x168CC, offset: 0x168CC, size: 0x8, addend: 0x0, symName: __ZNKSt3__117__compressed_pairINS_12basic_stringIcNS_11char_traitsIcEENS_9allocatorIcEEE5__repES5_E5firstB8ue170006Ev, symObjAddr: 0x47DC, symBinAddr: 0x1000072B0, symSize: 0x24 }
  - { offsetInCU: 0x168F2, offset: 0x168F2, size: 0x8, addend: 0x0, symName: __ZNKSt3__122__compressed_pair_elemINS_12basic_stringIcNS_11char_traitsIcEENS_9allocatorIcEEE5__repELi0ELb0EE5__getB8ue170006Ev, symObjAddr: 0x4800, symBinAddr: 0x1000072D4, symSize: 0x14 }
  - { offsetInCU: 0x16918, offset: 0x16918, size: 0x8, addend: 0x0, symName: __ZNSt3__117__compressed_pairINS_12basic_stringIcNS_11char_traitsIcEENS_9allocatorIcEEE5__repES5_E5firstB8ue170006Ev, symObjAddr: 0x4814, symBinAddr: 0x1000072E8, symSize: 0x24 }
  - { offsetInCU: 0x1693E, offset: 0x1693E, size: 0x8, addend: 0x0, symName: __ZNSt3__122__compressed_pair_elemINS_12basic_stringIcNS_11char_traitsIcEENS_9allocatorIcEEE5__repELi0ELb0EE5__getB8ue170006Ev, symObjAddr: 0x4838, symBinAddr: 0x10000730C, symSize: 0x14 }
  - { offsetInCU: 0x16964, offset: 0x16964, size: 0x8, addend: 0x0, symName: __ZNSt3__114pointer_traitsIPcE10pointer_toB8ue170006ERc, symObjAddr: 0x484C, symBinAddr: 0x100007320, symSize: 0x14 }
  - { offsetInCU: 0x16987, offset: 0x16987, size: 0x8, addend: 0x0, symName: __ZNSt3__119ostreambuf_iteratorIcNS_11char_traitsIcEEEC2B8ue170006ERNS_13basic_ostreamIcS2_EE, symObjAddr: 0x4860, symBinAddr: 0x100007334, symSize: 0x54 }
  - { offsetInCU: 0x169BF, offset: 0x169BF, size: 0x8, addend: 0x0, symName: __ZNKSt3__19basic_iosIcNS_11char_traitsIcEEE5rdbufB8ue170006Ev, symObjAddr: 0x48B4, symBinAddr: 0x100007388, symSize: 0x24 }
  - { offsetInCU: 0x169E7, offset: 0x169E7, size: 0x8, addend: 0x0, symName: __ZNKSt3__18ios_base5rdbufB8ue170006Ev, symObjAddr: 0x48D8, symBinAddr: 0x1000073AC, symSize: 0x18 }
  - { offsetInCU: 0x16A0D, offset: 0x16A0D, size: 0x8, addend: 0x0, symName: __ZNSt3__111char_traitsIcE11eq_int_typeB8ue170006Eii, symObjAddr: 0x48F0, symBinAddr: 0x1000073C4, symSize: 0x28 }
  - { offsetInCU: 0x16A40, offset: 0x16A40, size: 0x8, addend: 0x0, symName: __ZNSt3__111char_traitsIcE3eofB8ue170006Ev, symObjAddr: 0x4918, symBinAddr: 0x1000073EC, symSize: 0x8 }
  - { offsetInCU: 0x16A54, offset: 0x16A54, size: 0x8, addend: 0x0, symName: __ZNKSt3__19basic_iosIcNS_11char_traitsIcEEE5widenB8ue170006Ec, symObjAddr: 0x4920, symBinAddr: 0x1000073F4, symSize: 0x84 }
  - { offsetInCU: 0x16ABD, offset: 0x16ABD, size: 0x8, addend: 0x0, symName: __ZNKSt3__15ctypeIcE5widenB8ue170006Ec, symObjAddr: 0x49D0, symBinAddr: 0x1000074A4, symSize: 0x38 }
  - { offsetInCU: 0x16AF2, offset: 0x16AF2, size: 0x8, addend: 0x0, symName: __ZNSt3__18ios_base8setstateB8ue170006Ej, symObjAddr: 0x4A08, symBinAddr: 0x1000074DC, symSize: 0x34 }
  - { offsetInCU: 0x16B29, offset: 0x16B29, size: 0x8, addend: 0x0, symName: __ZNSt3__19basic_iosIcNS_11char_traitsIcEEEC2B8ue170006Ev, symObjAddr: 0x4A60, symBinAddr: 0x100007534, symSize: 0x44 }
  - { offsetInCU: 0x16B53, offset: 0x16B53, size: 0x8, addend: 0x0, symName: __ZNSt3__113basic_ostreamIcNS_11char_traitsIcEEEC2B8ue170006EPNS_15basic_streambufIcS2_EE, symObjAddr: 0x4AA4, symBinAddr: 0x100007578, symSize: 0x60 }
  - { offsetInCU: 0x16B98, offset: 0x16B98, size: 0x8, addend: 0x0, symName: __ZNSt3__18ios_baseC2B8ue170006Ev, symObjAddr: 0x4B04, symBinAddr: 0x1000075D8, symSize: 0x24 }
  - { offsetInCU: 0x16BC2, offset: 0x16BC2, size: 0x8, addend: 0x0, symName: __ZNSt3__19basic_iosIcNS_11char_traitsIcEEE4initB8ue170006EPNS_15basic_streambufIcS2_EE, symObjAddr: 0x4B28, symBinAddr: 0x1000075FC, symSize: 0x44 }
  - { offsetInCU: 0x16BF9, offset: 0x16BF9, size: 0x8, addend: 0x0, symName: __ZNKSt3__19basic_iosIcNS_11char_traitsIcEEE4failB8ue170006Ev, symObjAddr: 0x4B6C, symBinAddr: 0x100007640, symSize: 0x28 }
  - { offsetInCU: 0x16C1F, offset: 0x16C1F, size: 0x8, addend: 0x0, symName: __ZNSt3__115basic_streambufIcNS_11char_traitsIcEEE10pubseekoffB8ue170006ExNS_8ios_base7seekdirEj, symObjAddr: 0x4BDC, symBinAddr: 0x1000076B0, symSize: 0x44 }
  - { offsetInCU: 0x16C6F, offset: 0x16C6F, size: 0x8, addend: 0x0, symName: __ZNSt3__14fposI11__mbstate_tEC1B8ue170006Ex, symObjAddr: 0x4C20, symBinAddr: 0x1000076F4, symSize: 0x34 }
  - { offsetInCU: 0x16CA7, offset: 0x16CA7, size: 0x8, addend: 0x0, symName: __ZNKSt3__18ios_base4failB8ue170006Ev, symObjAddr: 0x4C54, symBinAddr: 0x100007728, symSize: 0x28 }
  - { offsetInCU: 0x16CCF, offset: 0x16CCF, size: 0x8, addend: 0x0, symName: __ZNKSt3__14fposI11__mbstate_tEcvxB8ue170006Ev, symObjAddr: 0x4C7C, symBinAddr: 0x100007750, symSize: 0x18 }
  - { offsetInCU: 0x16CF5, offset: 0x16CF5, size: 0x8, addend: 0x0, symName: __ZNSt3__14fposI11__mbstate_tEC2B8ue170006Ex, symObjAddr: 0x4C94, symBinAddr: 0x100007768, symSize: 0x40 }
...
